; Function Attrs: mustprogress nounwind uwtable
define hidden noundef ptr @_ZN16java_lang_String23create_oop_from_unicodeEPKtiP10JavaThread(ptr noundef %0, i32 noundef %1, ptr noundef %2) local_unnamed_addr #0 align 2 {
  %4 = tail call ptr @_ZN16java_lang_String19create_from_unicodeEPKtiP10JavaThread(ptr noundef %0, i32 noundef %1, ptr noundef %2)
  %5 = getelementptr inbounds i8, ptr %2, i64 8
  %6 = load ptr, ptr %5, align 8
  %7 = icmp ne ptr %6, null
  %8 = icmp eq ptr %4, null
  %or.cond = or i1 %8, %7
  br i1 %or.cond, label %_ZNK6HandleclEv.exit, label %9

9:                                                ; preds = %3
  %10 = load ptr, ptr %4, align 8
  br label %_ZNK6HandleclEv.exit

_ZNK6HandleclEv.exit:                             ; preds = %9, %3
  %.0 = phi ptr [ null, %3 ], [ %10, %9 ]
  ret ptr %.0
}